target datalayout = "e-m:e-p270:32:32-p271:32:32-p272:64:64-i64:64-i128:128-f80:128-n8:16:32:64-S128"
target triple = "x86_64-pc-linux-gnu"

@.str = private unnamed_addr constant [5 x i8] c"pmix\00", align 1
@.str.9 = private unnamed_addr constant [37 x i8] c"PMIX ERROR: %s in file %s at line %d\00", align 1
@.str.10 = private unnamed_addr constant [14 x i8] c"preg_native.c\00", align 1
@.str.15 = private unnamed_addr constant [3 x i8] c"%d\00", align 1

; Function Attrs: nounwind uwtable
define internal i32 @pmix_regex_extract_ppn(ptr noundef %0, ptr noundef %1) #0 {
  %3 = alloca i32, align 4
  %4 = alloca ptr, align 8
  %5 = alloca ptr, align 8
  %6 = alloca ptr, align 8
  %7 = alloca ptr, align 8
  %8 = alloca ptr, align 8
  %9 = alloca ptr, align 8
  %10 = alloca i32, align 4
  %11 = alloca i32, align 4
  %12 = alloca i32, align 4
  %13 = alloca i32, align 4
  %14 = alloca i32, align 4
  %15 = alloca i32, align 4
  store ptr %0, ptr %4, align 8, !tbaa !3
  store ptr %1, ptr %5, align 8, !tbaa !59
  call void @llvm.lifetime.start.p0(i64 8, ptr %6) #12
  call void @llvm.lifetime.start.p0(i64 8, ptr %7) #12
  call void @llvm.lifetime.start.p0(i64 8, ptr %8) #12
  call void @llvm.lifetime.start.p0(i64 8, ptr %9) #12
  store ptr null, ptr %9, align 8, !tbaa !8
  call void @llvm.lifetime.start.p0(i64 4, ptr %10) #12
  call void @llvm.lifetime.start.p0(i64 4, ptr %11) #12
  call void @llvm.lifetime.start.p0(i64 4, ptr %12) #12
  call void @llvm.lifetime.start.p0(i64 4, ptr %13) #12
  call void @llvm.lifetime.start.p0(i64 4, ptr %14) #12
  %16 = load ptr, ptr %4, align 8, !tbaa !3
  %17 = call ptr @PMIx_Argv_split(ptr noundef %16, i32 noundef 59)
  store ptr %17, ptr %7, align 8, !tbaa !8
  store i32 0, ptr %11, align 4, !tbaa !10
  br label %18

18:                                               ; preds = %101, %2
  %19 = load ptr, ptr %7, align 8, !tbaa !8
  %20 = load i32, ptr %11, align 4, !tbaa !10
  %21 = sext i32 %20 to i64
  %22 = getelementptr inbounds ptr, ptr %19, i64 %21
  %23 = load ptr, ptr %22, align 8, !tbaa !3
  %24 = icmp ne ptr null, %23
  br i1 %24, label %25, label %104

25:                                               ; preds = %18
  %26 = load ptr, ptr %7, align 8, !tbaa !8
  %27 = load i32, ptr %11, align 4, !tbaa !10
  %28 = sext i32 %27 to i64
  %29 = getelementptr inbounds ptr, ptr %26, i64 %28
  %30 = load ptr, ptr %29, align 8, !tbaa !3
  %31 = call ptr @PMIx_Argv_split(ptr noundef %30, i32 noundef 44)
  store ptr %31, ptr %6, align 8, !tbaa !8
  store i32 0, ptr %10, align 4, !tbaa !10
  br label %32

32:                                               ; preds = %89, %25
  %33 = load ptr, ptr %6, align 8, !tbaa !8
  %34 = load i32, ptr %10, align 4, !tbaa !10
  %35 = sext i32 %34 to i64
  %36 = getelementptr inbounds ptr, ptr %33, i64 %35
  %37 = load ptr, ptr %36, align 8, !tbaa !3
  %38 = icmp ne ptr null, %37
  br i1 %38, label %39, label %92

39:                                               ; preds = %32
  %40 = load ptr, ptr %6, align 8, !tbaa !8
  %41 = load i32, ptr %10, align 4, !tbaa !10
  %42 = sext i32 %41 to i64
  %43 = getelementptr inbounds ptr, ptr %40, i64 %42
  %44 = load ptr, ptr %43, align 8, !tbaa !3
  %45 = call ptr @strchr(ptr noundef %44, i32 noundef 45) #13
  store ptr %45, ptr %8, align 8, !tbaa !3
  %46 = icmp eq ptr null, %45
  br i1 %46, label %47, label %54

47:                                               ; preds = %39
  %48 = load ptr, ptr %6, align 8, !tbaa !8
  %49 = load i32, ptr %10, align 4, !tbaa !10
  %50 = sext i32 %49 to i64
  %51 = getelementptr inbounds ptr, ptr %48, i64 %50
  %52 = load ptr, ptr %51, align 8, !tbaa !3
  %53 = call i32 @PMIx_Argv_append_nosize(ptr noundef %9, ptr noundef %52)
  br label %88

54:                                               ; preds = %39
  %55 = load ptr, ptr %8, align 8, !tbaa !3
  store i8 0, ptr %55, align 1, !tbaa !20
  %56 = load ptr, ptr %6, align 8, !tbaa !8
  %57 = load i32, ptr %10, align 4, !tbaa !10
  %58 = sext i32 %57 to i64
  %59 = getelementptr inbounds ptr, ptr %56, i64 %58
  %60 = load ptr, ptr %59, align 8, !tbaa !3
  %61 = call i64 @strtol(ptr noundef %60, ptr noundef null, i32 noundef 10) #12
  %62 = trunc i64 %61 to i32
  store i32 %62, ptr %13, align 4, !tbaa !10
  %63 = load ptr, ptr %8, align 8, !tbaa !3
  %64 = getelementptr inbounds nuw i8, ptr %63, i32 1
  store ptr %64, ptr %8, align 8, !tbaa !3
  %65 = load ptr, ptr %8, align 8, !tbaa !3
  %66 = call i64 @strtol(ptr noundef %65, ptr noundef null, i32 noundef 10) #12
  %67 = trunc i64 %66 to i32
  store i32 %67, ptr %14, align 4, !tbaa !10
  %68 = load i32, ptr %13, align 4, !tbaa !10
  store i32 %68, ptr %12, align 4, !tbaa !10
  br label %69

69:                                               ; preds = %84, %54
  %70 = load i32, ptr %12, align 4, !tbaa !10
  %71 = load i32, ptr %14, align 4, !tbaa !10
  %72 = icmp sle i32 %70, %71
  br i1 %72, label %73, label %87

73:                                               ; preds = %69
  %74 = load i32, ptr %12, align 4, !tbaa !10
  %75 = call i32 (ptr, ptr, ...) @asprintf(ptr noundef %8, ptr noundef @.str.15, i32 noundef %74) #12
  %76 = icmp sgt i32 0, %75
  br i1 %76, label %77, label %80

77:                                               ; preds = %73
  %78 = load ptr, ptr %7, align 8, !tbaa !8
  call void @PMIx_Argv_free(ptr noundef %78)
  %79 = load ptr, ptr %6, align 8, !tbaa !8
  call void @PMIx_Argv_free(ptr noundef %79)
  store i32 -32, ptr %3, align 4
  store i32 1, ptr %15, align 4
  br label %106

80:                                               ; preds = %73
  %81 = load ptr, ptr %8, align 8, !tbaa !3
  %82 = call i32 @PMIx_Argv_append_nosize(ptr noundef %9, ptr noundef %81)
  %83 = load ptr, ptr %8, align 8, !tbaa !3
  call void @free(ptr noundef %83) #12
  br label %84

84:                                               ; preds = %80
  %85 = load i32, ptr %12, align 4, !tbaa !10
  %86 = add nsw i32 %85, 1
  store i32 %86, ptr %12, align 4, !tbaa !10
  br label %69, !llvm.loop !108

87:                                               ; preds = %69
  br label %88

88:                                               ; preds = %87, %47
  br label %89

89:                                               ; preds = %88
  %90 = load i32, ptr %10, align 4, !tbaa !10
  %91 = add nsw i32 %90, 1
  store i32 %91, ptr %10, align 4, !tbaa !10
  br label %32, !llvm.loop !109

92:                                               ; preds = %32
  %93 = load ptr, ptr %6, align 8, !tbaa !8
  call void @PMIx_Argv_free(ptr noundef %93)
  %94 = load ptr, ptr %9, align 8, !tbaa !8
  %95 = call ptr @PMIx_Argv_join(ptr noundef %94, i32 noundef 44)
  store ptr %95, ptr %8, align 8, !tbaa !3
  %96 = load ptr, ptr %5, align 8, !tbaa !59
  %97 = load ptr, ptr %8, align 8, !tbaa !3
  %98 = call i32 @PMIx_Argv_append_nosize(ptr noundef %96, ptr noundef %97)
  %99 = load ptr, ptr %8, align 8, !tbaa !3
  call void @free(ptr noundef %99) #12
  %100 = load ptr, ptr %9, align 8, !tbaa !8
  call void @PMIx_Argv_free(ptr noundef %100)
  store ptr null, ptr %9, align 8, !tbaa !8
  br label %101

101:                                              ; preds = %92
  %102 = load i32, ptr %11, align 4, !tbaa !10
  %103 = add nsw i32 %102, 1
  store i32 %103, ptr %11, align 4, !tbaa !10
  br label %18, !llvm.loop !110

104:                                              ; preds = %18
  %105 = load ptr, ptr %7, align 8, !tbaa !8
  call void @PMIx_Argv_free(ptr noundef %105)
  store i32 0, ptr %3, align 4
  store i32 1, ptr %15, align 4
  br label %106

106:                                              ; preds = %104, %77
  call void @llvm.lifetime.end.p0(i64 4, ptr %14) #12
  call void @llvm.lifetime.end.p0(i64 4, ptr %13) #12
  call void @llvm.lifetime.end.p0(i64 4, ptr %12) #12
  call void @llvm.lifetime.end.p0(i64 4, ptr %11) #12
  call void @llvm.lifetime.end.p0(i64 4, ptr %10) #12
  call void @llvm.lifetime.end.p0(i64 8, ptr %9) #12
  call void @llvm.lifetime.end.p0(i64 8, ptr %8) #12
  call void @llvm.lifetime.end.p0(i64 8, ptr %7) #12
  call void @llvm.lifetime.end.p0(i64 8, ptr %6) #12
  %107 = load i32, ptr %3, align 4
  ret i32 %107
}

; Function Attrs: nounwind uwtable
define internal i32 @parse_procs(ptr noundef %0, ptr noundef %1) #0 {
  %3 = alloca i32, align 4
  %4 = alloca ptr, align 8
  %5 = alloca ptr, align 8
  %6 = alloca ptr, align 8
  %7 = alloca ptr, align 8
  %8 = alloca i32, align 4
  %9 = alloca i32, align 4
  store ptr %0, ptr %4, align 8, !tbaa !3
  store ptr %1, ptr %5, align 8, !tbaa !59
  call void @llvm.lifetime.start.p0(i64 8, ptr %6) #12
  call void @llvm.lifetime.start.p0(i64 8, ptr %7) #12
  call void @llvm.lifetime.start.p0(i64 4, ptr %8) #12
  %10 = load ptr, ptr %5, align 8, !tbaa !59
  store ptr null, ptr %10, align 8, !tbaa !8
  %11 = load ptr, ptr %4, align 8, !tbaa !3
  %12 = icmp eq ptr null, %11
  br i1 %12, label %13, label %14

13:                                               ; preds = %2
  store i32 0, ptr %3, align 4
  store i32 1, ptr %9, align 4
  br label %54

14:                                               ; preds = %2
  %15 = load ptr, ptr %4, align 8, !tbaa !3
  %16 = call noalias ptr @strdup(ptr noundef %15) #12
  store ptr %16, ptr %6, align 8, !tbaa !3
  %17 = load ptr, ptr %6, align 8, !tbaa !3
  %18 = load ptr, ptr %6, align 8, !tbaa !3
  %19 = call i64 @strlen(ptr noundef %18) #13
  %20 = sub i64 %19, 1
  %21 = getelementptr inbounds nuw i8, ptr %17, i64 %20
  store i8 0, ptr %21, align 1, !tbaa !20
  %22 = load ptr, ptr %6, align 8, !tbaa !3
  %23 = call ptr @strchr(ptr noundef %22, i32 noundef 91) #13
  store ptr %23, ptr %7, align 8, !tbaa !3
  %24 = icmp eq ptr null, %23
  br i1 %24, label %25, label %27

25:                                               ; preds = %14
  %26 = load ptr, ptr %6, align 8, !tbaa !3
  call void @free(ptr noundef %26) #12
  store i32 -27, ptr %3, align 4
  store i32 1, ptr %9, align 4
  br label %54

27:                                               ; preds = %14
  %28 = load ptr, ptr %7, align 8, !tbaa !3
  store i8 0, ptr %28, align 1, !tbaa !20
  %29 = load ptr, ptr %7, align 8, !tbaa !3
  %30 = getelementptr inbounds nuw i8, ptr %29, i32 1
  store ptr %30, ptr %7, align 8, !tbaa !3
  %31 = load ptr, ptr %6, align 8, !tbaa !3
  %32 = call i32 @strcmp(ptr noundef %31, ptr noundef @.str) #13
  %33 = icmp eq i32 0, %32
  br i1 %33, label %34, label %50

34:                                               ; preds = %27
  %35 = load ptr, ptr %7, align 8, !tbaa !3
  %36 = load ptr, ptr %5, align 8, !tbaa !59
  %37 = call i32 @pmix_regex_extract_ppn(ptr noundef %35, ptr noundef %36)
  store i32 %37, ptr %8, align 4, !tbaa !10
  %38 = icmp ne i32 0, %37
  br i1 %38, label %39, label %49

39:                                               ; preds = %34
  br label %40

40:                                               ; preds = %39
  %41 = load i32, ptr %8, align 4, !tbaa !10
  %42 = icmp ne i32 -2, %41
  br i1 %42, label %43, label %46

43:                                               ; preds = %40
  %44 = load i32, ptr %8, align 4, !tbaa !10
  %45 = call ptr @PMIx_Error_string(i32 noundef %44)
  call void (i32, ptr, ...) @pmix_output(i32 noundef 0, ptr noundef @.str.9, ptr noundef %45, ptr noundef @.str.10, i32 noundef 512)
  br label %46

46:                                               ; preds = %43, %40
  br label %47

47:                                               ; preds = %46
  br label %48

48:                                               ; preds = %47
  br label %49

49:                                               ; preds = %48, %34
  br label %51

50:                                               ; preds = %27
  store i32 -1366, ptr %8, align 4, !tbaa !10
  br label %51

51:                                               ; preds = %50, %49
  %52 = load ptr, ptr %6, align 8, !tbaa !3
  call void @free(ptr noundef %52) #12
  %53 = load i32, ptr %8, align 4, !tbaa !10
  store i32 %53, ptr %3, align 4
  store i32 1, ptr %9, align 4
  br label %54

54:                                               ; preds = %51, %25, %13
  call void @llvm.lifetime.end.p0(i64 4, ptr %8) #12
  call void @llvm.lifetime.end.p0(i64 8, ptr %7) #12
  call void @llvm.lifetime.end.p0(i64 8, ptr %6) #12
  %55 = load i32, ptr %3, align 4
  ret i32 %55
}