; Function Attrs: nounwind uwtable
define internal range(i32 -1366, 1) i32 @parse_procs(ptr noundef readonly captures(address_is_null) %0, ptr noundef initializes((0, 8)) %1) #0 {
  %3 = alloca ptr, align 8
  %4 = alloca ptr, align 8
  store ptr null, ptr %1, align 8, !tbaa !3
  %5 = icmp eq ptr %0, null
  br i1 %5, label %58, label %6

6:                                                ; preds = %2
  %7 = tail call noalias ptr @strdup(ptr noundef nonnull %0) #18
  %8 = tail call i64 @strlen(ptr noundef nonnull dereferenceable(1) %7) #19
  %9 = getelementptr i8, ptr %7, i64 %8
  %10 = getelementptr i8, ptr %9, i64 -1
  store i8 0, ptr %10, align 1, !tbaa !24
  %11 = tail call ptr @strchr(ptr noundef nonnull dereferenceable(1) %7, i32 noundef 91) #19
  %12 = icmp eq ptr %11, null
  br i1 %12, label %13, label %14

13:                                               ; preds = %6
  tail call void @free(ptr noundef nonnull %7) #18
  br label %58

14:                                               ; preds = %6
  store i8 0, ptr %11, align 1, !tbaa !24
  %15 = tail call i32 @strcmp(ptr noundef nonnull dereferenceable(1) %7, ptr noundef nonnull dereferenceable(5) @.str) #19
  %16 = icmp eq i32 %15, 0
  br i1 %16, label %17, label %57

17:                                               ; preds = %14
  %18 = getelementptr inbounds nuw i8, ptr %11, i64 1
  call void @llvm.lifetime.start.p0(i64 8, ptr nonnull %3) #18
  call void @llvm.lifetime.start.p0(i64 8, ptr nonnull %4) #18
  store ptr null, ptr %4, align 8, !tbaa !3
  %19 = tail call ptr @PMIx_Argv_split(ptr noundef nonnull %18, i32 noundef 59) #18
  %20 = load ptr, ptr %19, align 8, !tbaa !8
  %.not38.i = icmp eq ptr %20, null
  br i1 %.not38.i, label %pmix_regex_extract_ppn.exit.thread, label %.lr.ph41.i

.lr.ph41.i:                                       ; preds = %17, %._crit_edge.i
  %indvars.iv45.i = phi i64 [ %indvars.iv.next46.i, %._crit_edge.i ], [ 0, %17 ]
  %21 = phi ptr [ %54, %._crit_edge.i ], [ %20, %17 ]
  %22 = call ptr @PMIx_Argv_split(ptr noundef nonnull %21, i32 noundef 44) #18
  %23 = load ptr, ptr %22, align 8, !tbaa !8
  %.not3135.i = icmp eq ptr %23, null
  br i1 %.not3135.i, label %._crit_edge.i, label %.lr.ph37.i

.lr.ph37.i:                                       ; preds = %.lr.ph41.i, %.loopexit.i
  %indvars.iv.i = phi i64 [ %indvars.iv.next.i, %.loopexit.i ], [ 0, %.lr.ph41.i ]
  %24 = phi ptr [ %47, %.loopexit.i ], [ %23, %.lr.ph41.i ]
  %25 = getelementptr inbounds nuw ptr, ptr %22, i64 %indvars.iv.i
  %26 = call ptr @strchr(ptr noundef nonnull dereferenceable(1) %24, i32 noundef 45) #19
  store ptr %26, ptr %3, align 8, !tbaa !8
  %27 = icmp eq ptr %26, null
  br i1 %27, label %28, label %31

28:                                               ; preds = %.lr.ph37.i
  %29 = load ptr, ptr %25, align 8, !tbaa !8
  %30 = call i32 @PMIx_Argv_append_nosize(ptr noundef nonnull %4, ptr noundef %29) #18
  br label %.loopexit.i

31:                                               ; preds = %.lr.ph37.i
  store i8 0, ptr %26, align 1, !tbaa !24
  %32 = load ptr, ptr %25, align 8, !tbaa !8
  %33 = call i64 @strtol(ptr noundef captures(none) %32, ptr noundef null, i32 noundef 10) #18
  %34 = trunc i64 %33 to i32
  %35 = load ptr, ptr %3, align 8, !tbaa !8
  %36 = getelementptr inbounds nuw i8, ptr %35, i64 1
  store ptr %36, ptr %3, align 8, !tbaa !8
  %37 = call i64 @strtol(ptr noundef nonnull captures(none) %36, ptr noundef null, i32 noundef 10) #18
  %38 = trunc i64 %37 to i32
  %.not3233.i = icmp sgt i32 %34, %38
  br i1 %.not3233.i, label %.loopexit.i, label %.lr.ph.i

.lr.ph.i:                                         ; preds = %31, %41
  %.02634.i = phi i32 [ %45, %41 ], [ %34, %31 ]
  %39 = call i32 (ptr, ptr, ...) @asprintf(ptr noundef nonnull %3, ptr noundef nonnull @.str.15, i32 noundef %.02634.i) #18
  %40 = icmp slt i32 %39, 0
  br i1 %40, label %55, label %41

41:                                               ; preds = %.lr.ph.i
  %42 = load ptr, ptr %3, align 8, !tbaa !8
  %43 = call i32 @PMIx_Argv_append_nosize(ptr noundef nonnull %4, ptr noundef %42) #18
  %44 = load ptr, ptr %3, align 8, !tbaa !8
  call void @free(ptr noundef %44) #18
  %45 = add i32 %.02634.i, 1
  %exitcond.not.i = icmp eq i32 %.02634.i, %38
  br i1 %exitcond.not.i, label %.loopexit.i, label %.lr.ph.i, !llvm.loop !74

.loopexit.i:                                      ; preds = %41, %31, %28
  %indvars.iv.next.i = add nuw nsw i64 %indvars.iv.i, 1
  %46 = getelementptr inbounds nuw ptr, ptr %22, i64 %indvars.iv.next.i
  %47 = load ptr, ptr %46, align 8, !tbaa !8
  %.not31.i = icmp eq ptr %47, null
  br i1 %.not31.i, label %._crit_edge.i, label %.lr.ph37.i, !llvm.loop !75

._crit_edge.i:                                    ; preds = %.loopexit.i, %.lr.ph41.i
  call void @PMIx_Argv_free(ptr noundef nonnull %22) #18
  %48 = load ptr, ptr %4, align 8, !tbaa !3
  %49 = call ptr @PMIx_Argv_join(ptr noundef %48, i32 noundef 44) #18
  store ptr %49, ptr %3, align 8, !tbaa !8
  %50 = call i32 @PMIx_Argv_append_nosize(ptr noundef nonnull %1, ptr noundef %49) #18
  %51 = load ptr, ptr %3, align 8, !tbaa !8
  call void @free(ptr noundef %51) #18
  %52 = load ptr, ptr %4, align 8, !tbaa !3
  call void @PMIx_Argv_free(ptr noundef %52) #18
  store ptr null, ptr %4, align 8, !tbaa !3
  %indvars.iv.next46.i = add nuw nsw i64 %indvars.iv45.i, 1
  %53 = getelementptr inbounds nuw ptr, ptr %19, i64 %indvars.iv.next46.i
  %54 = load ptr, ptr %53, align 8, !tbaa !8
  %.not.i = icmp eq ptr %54, null
  br i1 %.not.i, label %pmix_regex_extract_ppn.exit.thread, label %.lr.ph41.i, !llvm.loop !76

pmix_regex_extract_ppn.exit.thread:               ; preds = %._crit_edge.i, %17
  call void @PMIx_Argv_free(ptr noundef nonnull %19) #18
  call void @llvm.lifetime.end.p0(i64 8, ptr nonnull %4) #18
  call void @llvm.lifetime.end.p0(i64 8, ptr nonnull %3) #18
  br label %57

55:                                               ; preds = %.lr.ph.i
  call void @PMIx_Argv_free(ptr noundef nonnull %19) #18
  call void @PMIx_Argv_free(ptr noundef nonnull %22) #18
  call void @llvm.lifetime.end.p0(i64 8, ptr nonnull %4) #18
  call void @llvm.lifetime.end.p0(i64 8, ptr nonnull %3) #18
  %56 = call ptr @PMIx_Error_string(i32 noundef -32) #18
  call void (i32, ptr, ...) @pmix_output(i32 noundef 0, ptr noundef nonnull @.str.9, ptr noundef %56, ptr noundef nonnull @.str.10, i32 noundef 512) #18
  br label %57

57:                                               ; preds = %pmix_regex_extract_ppn.exit.thread, %14, %55
  %.0 = phi i32 [ -32, %55 ], [ -1366, %14 ], [ 0, %pmix_regex_extract_ppn.exit.thread ]
  call void @free(ptr noundef %7) #18
  br label %58

58:                                               ; preds = %2, %57, %13
  %.017 = phi i32 [ -27, %13 ], [ %.0, %57 ], [ 0, %2 ]
  ret i32 %.017
}